Certificate:
    Data:
        Version: 3 (0x2)
        Serial Number:
            4e:3d:2b:1f:c3:ab:0c:2f:b3:1d:d6:18:d5:1b:e3:3b:ae:60:09:cf
        Signature Algorithm: sha512WithRSAEncryption
        Issuer: C=IT, O=IGI, CN=Test CA
        Validity
            Not Before: Feb 14 14:28:40 2024 GMT
            Not After : Mar 15 14:28:40 2024 GMT
        Subject: C=IT, O=IGI, CN=Expired
        Subject Public Key Info:
            Public Key Algorithm: rsaEncryption
                Public-Key: (2048 bit)
                Modulus:
                    00:91:98:07:74:9e:1a:b6:39:c9:54:d0:3c:97:be:
                    43:ed:37:28:10:35:87:08:3d:01:aa:b4:11:db:ec:
                    00:1e:a0:de:8c:c0:b7:44:3c:4a:2d:29:f4:a9:8f:
                    cf:56:7f:45:ce:3b:15:09:fe:2f:1e:16:7c:63:df:
                    96:f9:b8:65:3e:f5:3b:0b:a5:77:6f:95:4e:d7:8b:
                    43:aa:3c:4a:00:35:d6:fa:84:6a:51:55:39:7f:17:
                    ed:86:8c:4a:ca:67:30:d0:4f:20:d0:9c:24:08:ec:
                    eb:cd:b6:ac:c4:a0:d8:ac:7c:b0:c0:23:8d:1f:c5:
                    fb:56:e6:bb:c5:fb:93:95:d4:41:2a:56:08:a2:11:
                    19:73:b5:e1:ec:17:fe:1c:d1:ca:9a:7e:37:0a:64:
                    a0:d7:3f:bf:3c:b0:7e:b7:2c:59:d9:c0:a6:24:b0:
                    c4:c1:04:9c:bb:84:1c:7e:1a:da:a8:8b:bb:5f:1a:
                    28:91:85:49:cf:37:0b:c2:46:5f:6a:d8:ad:ee:6e:
                    c3:3b:85:a1:79:61:6e:a8:8d:6f:29:48:3a:02:c6:
                    57:ad:14:28:7c:3d:e6:63:f7:cf:1f:c1:4e:93:3f:
                    85:99:27:25:7c:e1:3c:cc:2c:ad:26:cb:ca:2d:97:
                    15:ff:d3:3b:72:bb:be:b3:2c:fd:18:a9:ad:0f:f0:
                    ff:77
                Exponent: 65537 (0x10001)
        X509v3 extensions:
            X509v3 Basic Constraints: critical
                CA:FALSE
            X509v3 Subject Key Identifier: 
                A5:73:F4:D0:73:53:FD:8D:01:D8:11:2C:5F:A2:B6:8C:38:CF:FB:DF
            X509v3 Key Usage: critical
                Digital Signature, Non Repudiation, Key Encipherment
            X509v3 Authority Key Identifier: 
                38:EF:43:18:CA:52:57:C5:B5:0F:36:3D:6E:97:F6:2D:DA:3F:25:46
            X509v3 Subject Alternative Name: 
                email:expired@cnaf.infn.it
    Signature Algorithm: sha512WithRSAEncryption
    Signature Value:
        4b:ff:33:a3:b0:07:46:6e:e8:20:73:a0:76:2c:3a:aa:79:9d:
        4a:49:55:f0:7a:9d:4a:aa:2d:71:87:b9:7b:fe:08:6d:fd:8d:
        4f:13:23:e3:15:94:b3:f9:ec:8b:91:68:48:df:d2:7b:f3:70:
        b1:db:55:93:ad:c2:67:89:53:b0:23:e9:c7:97:1f:7d:e9:c1:
        3b:d6:1b:b8:2a:0a:a3:13:dd:46:41:71:9c:be:d6:08:0e:40:
        d5:9d:6d:77:1c:c5:d1:b7:6c:43:cb:eb:1c:30:3b:f0:70:51:
        90:47:67:52:b8:2b:46:05:9d:21:b2:8c:0a:eb:18:4d:ed:5d:
        5c:26:0b:ff:5b:cf:80:e2:67:2b:6a:62:b5:7a:ff:6b:fa:22:
        ba:4f:1c:fd:94:6d:92:85:5e:6a:b5:cc:ba:f3:c4:9c:a7:77:
        c8:33:44:3f:ca:0f:ae:22:3f:86:6e:1a:49:e1:2d:46:44:bf:
        9f:5f:7a:18:d4:2a:59:5a:8a:bc:f4:84:56:8a:a6:37:b6:23:
        56:7b:37:9b:5e:b8:b7:de:c8:7a:3c:bb:5e:c6:de:90:96:1d:
        5a:66:a2:2c:50:59:10:b8:aa:6a:e3:96:dd:a3:94:8a:ca:e6:
        44:0b:76:47:03:bd:05:3e:08:dc:96:03:58:45:d1:0e:62:8d:
        ab:81:26:42
-----BEGIN CERTIFICATE-----
MIIDajCCAlKgAwIBAgIUTj0rH8OrDC+zHdYY1RvjO65gCc8wDQYJKoZIhvcNAQEN
BQAwLTELMAkGA1UEBhMCSVQxDDAKBgNVBAoMA0lHSTEQMA4GA1UEAwwHVGVzdCBD
QTAeFw0yNDAyMTQxNDI4NDBaFw0yNDAzMTUxNDI4NDBaMC0xCzAJBgNVBAYTAklU
MQwwCgYDVQQKDANJR0kxEDAOBgNVBAMMB0V4cGlyZWQwggEiMA0GCSqGSIb3DQEB
AQUAA4IBDwAwggEKAoIBAQCRmAd0nhq2OclU0DyXvkPtNygQNYcIPQGqtBHb7AAe
oN6MwLdEPEotKfSpj89Wf0XOOxUJ/i8eFnxj35b5uGU+9TsLpXdvlU7Xi0OqPEoA
Ndb6hGpRVTl/F+2GjErKZzDQTyDQnCQI7OvNtqzEoNisfLDAI40fxftW5rvF+5OV
1EEqVgiiERlzteHsF/4c0cqafjcKZKDXP788sH63LFnZwKYksMTBBJy7hBx+Gtqo
i7tfGiiRhUnPNwvCRl9q2K3ubsM7haF5YW6ojW8pSDoCxletFCh8PeZj988fwU6T
P4WZJyV84TzMLK0my8otlxX/0ztyu76zLP0Yqa0P8P93AgMBAAGjgYEwfzAMBgNV
HRMBAf8EAjAAMB0GA1UdDgQWBBSlc/TQc1P9jQHYESxforaMOM/73zAOBgNVHQ8B
Af8EBAMCBeAwHwYDVR0jBBgwFoAUOO9DGMpSV8W1DzY9bpf2Ldo/JUYwHwYDVR0R
BBgwFoEUZXhwaXJlZEBjbmFmLmluZm4uaXQwDQYJKoZIhvcNAQENBQADggEBAEv/
M6OwB0Zu6CBzoHYsOqp5nUpJVfB6nUqqLXGHuXv+CG39jU8TI+MVlLP57IuRaEjf
0nvzcLHbVZOtwmeJU7Aj6ceXH33pwTvWG7gqCqMT3UZBcZy+1ggOQNWdbXccxdG3
bEPL6xwwO/BwUZBHZ1K4K0YFnSGyjArrGE3tXVwmC/9bz4DiZytqYrV6/2v6IrpP
HP2UbZKFXmq1zLrzxJynd8gzRD/KD64iP4ZuGknhLUZEv59fehjUKllairz0hFaK
pje2I1Z7N5teuLfeyHo8u17G3pCWHVpmoixQWRC4qmrjlt2jlIrK5kQLdkcDvQU+
CNyWA1hF0Q5ijauBJkI=
-----END CERTIFICATE-----
