Certificate:
    Data:
        Version: 3 (0x2)
        Serial Number:
            5d:78:c6:8e:f2:a1:b0:e9:7b:24:30:15:45:4c:71:3a:c2:bb:b7:f5
        Signature Algorithm: sha512WithRSAEncryption
        Issuer: C=IT, O=IGI, CN=Test CA
        Validity
            Not Before: Feb 13 14:28:39 2025 GMT
            Not After : Mar 15 14:28:39 2025 GMT
        Subject: C=IT, O=IGI, CN=Revoked
        Subject Public Key Info:
            Public Key Algorithm: rsaEncryption
                Public-Key: (2048 bit)
                Modulus:
                    00:a8:3c:4f:a8:c1:21:5f:4e:48:08:03:64:e8:c6:
                    85:8e:0a:7f:21:16:f1:6b:20:8a:98:0c:bb:ca:e2:
                    f9:05:23:33:1c:28:b3:80:82:21:80:8b:50:68:44:
                    dc:d9:ab:e0:ed:b3:58:b2:dd:2b:6a:ff:d0:5a:31:
                    a4:8d:19:c0:ce:f5:e5:29:5f:b7:8d:46:f0:04:a3:
                    3f:30:78:41:b0:2f:67:cf:88:be:e8:af:89:e1:6c:
                    16:a8:1d:e9:8c:87:1e:91:ca:b2:fb:48:97:4d:29:
                    a5:59:79:c9:32:70:53:ad:f3:77:36:50:31:e0:e5:
                    aa:ae:90:d7:f1:62:0d:09:dc:69:15:1f:17:8e:11:
                    ed:bd:e4:d5:61:d4:c1:33:d7:a8:b0:fd:43:6c:f8:
                    3c:ad:c1:6e:7b:3a:21:ef:fb:b0:f5:0a:1a:02:60:
                    d3:ad:96:02:de:62:45:2f:c0:17:11:d8:11:5e:71:
                    9a:ae:bb:7e:a6:45:d4:1b:5f:bc:70:d0:ee:1a:61:
                    9d:8e:9f:fc:3b:0a:1b:55:ec:33:3d:4c:76:4f:8d:
                    99:e0:65:0b:d7:fe:61:89:de:f8:0b:4f:f7:44:13:
                    17:4c:e1:74:bd:72:b4:a0:3d:96:45:0e:24:3c:16:
                    66:ee:6e:24:f7:c2:60:c8:c7:a6:87:fd:39:77:4c:
                    cd:ad
                Exponent: 65537 (0x10001)
        X509v3 extensions:
            X509v3 Basic Constraints: critical
                CA:FALSE
            X509v3 Subject Key Identifier: 
                05:87:22:1F:3D:CA:31:65:9F:57:45:38:99:71:21:EF:84:A1:CE:41
            X509v3 Key Usage: critical
                Digital Signature, Non Repudiation, Key Encipherment
            X509v3 Authority Key Identifier: 
                38:EF:43:18:CA:52:57:C5:B5:0F:36:3D:6E:97:F6:2D:DA:3F:25:46
            X509v3 Subject Alternative Name: 
                email:revoked@cnaf.infn.it
    Signature Algorithm: sha512WithRSAEncryption
    Signature Value:
        44:2d:18:95:cb:d7:f5:82:86:0f:56:57:cc:88:ac:b0:30:1c:
        e8:3c:1e:e6:11:34:88:5c:a9:b0:a2:7b:af:3f:73:d6:61:1c:
        cb:b2:29:46:f3:c7:ac:3c:c5:00:b9:e9:8a:a3:89:56:45:6e:
        e0:5e:49:db:9c:22:fa:21:2c:92:d9:ca:79:0d:38:98:1d:8f:
        5c:47:c4:0a:5b:eb:4c:0a:e5:79:03:6c:45:14:b2:79:e2:32:
        8d:97:92:64:ee:73:5e:4a:74:d0:77:2e:93:e5:9f:55:26:08:
        22:0a:bc:58:6c:18:50:ab:62:9c:ce:3d:83:20:d1:58:a2:d4:
        64:8e:05:78:ff:97:54:b5:c4:31:3e:ad:08:a4:6b:23:3c:cc:
        c3:2a:4f:75:5d:4a:6c:07:d9:aa:bd:4b:60:62:c8:b4:b2:51:
        f8:d5:2f:55:42:ed:0c:ab:33:15:2c:1b:52:fd:cc:39:cc:4b:
        48:ac:02:3e:7b:55:3b:10:72:cc:27:c3:e9:86:a8:86:6c:da:
        c4:fd:70:9e:2d:d2:9f:08:e4:d2:d6:63:0e:ec:9f:6a:cb:5b:
        d0:63:ed:61:41:59:ac:25:f9:a8:2e:5b:73:7b:a1:4f:82:16:
        ef:49:e0:44:cb:5c:8d:6a:74:78:52:8f:4b:08:2a:bf:23:40:
        04:59:83:51
-----BEGIN CERTIFICATE-----
MIIDajCCAlKgAwIBAgIUXXjGjvKhsOl7JDAVRUxxOsK7t/UwDQYJKoZIhvcNAQEN
BQAwLTELMAkGA1UEBhMCSVQxDDAKBgNVBAoMA0lHSTEQMA4GA1UEAwwHVGVzdCBD
QTAeFw0yNTAyMTMxNDI4MzlaFw0yNTAzMTUxNDI4MzlaMC0xCzAJBgNVBAYTAklU
MQwwCgYDVQQKDANJR0kxEDAOBgNVBAMMB1Jldm9rZWQwggEiMA0GCSqGSIb3DQEB
AQUAA4IBDwAwggEKAoIBAQCoPE+owSFfTkgIA2ToxoWOCn8hFvFrIIqYDLvK4vkF
IzMcKLOAgiGAi1BoRNzZq+Dts1iy3Stq/9BaMaSNGcDO9eUpX7eNRvAEoz8weEGw
L2fPiL7or4nhbBaoHemMhx6RyrL7SJdNKaVZeckycFOt83c2UDHg5aqukNfxYg0J
3GkVHxeOEe295NVh1MEz16iw/UNs+DytwW57OiHv+7D1ChoCYNOtlgLeYkUvwBcR
2BFecZquu36mRdQbX7xw0O4aYZ2On/w7ChtV7DM9THZPjZngZQvX/mGJ3vgLT/dE
ExdM4XS9crSgPZZFDiQ8FmbubiT3wmDIx6aH/Tl3TM2tAgMBAAGjgYEwfzAMBgNV
HRMBAf8EAjAAMB0GA1UdDgQWBBQFhyIfPcoxZZ9XRTiZcSHvhKHOQTAOBgNVHQ8B
Af8EBAMCBeAwHwYDVR0jBBgwFoAUOO9DGMpSV8W1DzY9bpf2Ldo/JUYwHwYDVR0R
BBgwFoEUcmV2b2tlZEBjbmFmLmluZm4uaXQwDQYJKoZIhvcNAQENBQADggEBAEQt
GJXL1/WChg9WV8yIrLAwHOg8HuYRNIhcqbCie68/c9ZhHMuyKUbzx6w8xQC56Yqj
iVZFbuBeSducIvohLJLZynkNOJgdj1xHxApb60wK5XkDbEUUsnniMo2XkmTuc15K
dNB3LpPln1UmCCIKvFhsGFCrYpzOPYMg0Vii1GSOBXj/l1S1xDE+rQikayM8zMMq
T3VdSmwH2aq9S2BiyLSyUfjVL1VC7QyrMxUsG1L9zDnMS0isAj57VTsQcswnw+mG
qIZs2sT9cJ4t0p8I5NLWYw7sn2rLW9Bj7WFBWawl+aguW3N7oU+CFu9J4ETLXI1q
dHhSj0sIKr8jQARZg1E=
-----END CERTIFICATE-----
