Certificate:
    Data:
        Version: 3 (0x2)
        Serial Number:
            38:ef:b7:38:37:46:c0:46:3d:75:c6:9b:6c:af:6f:a6:8d:85:a3:15
        Signature Algorithm: sha512WithRSAEncryption
        Issuer: C=IT, O=IGI, CN=Test CA
        Validity
            Not Before: Feb 13 14:28:39 2025 GMT
            Not After : Mar 15 14:28:39 2025 GMT
        Subject: C=IT, O=IGI, CN=test-host.cnaf.infn.it
        Subject Public Key Info:
            Public Key Algorithm: rsaEncryption
                Public-Key: (2048 bit)
                Modulus:
                    00:c6:dd:1e:2a:fb:84:f6:a0:77:d0:85:e8:83:f6:
                    8a:15:27:ca:43:b4:a9:d0:8d:f3:f2:ec:df:68:f8:
                    0e:4d:12:9d:81:ef:af:90:83:e3:2a:05:f5:2f:3d:
                    eb:36:38:59:21:82:4e:a8:86:0e:01:5f:96:8d:ec:
                    60:3f:de:dc:d1:73:24:35:2e:ac:ca:9c:ae:d1:7f:
                    a5:0b:dd:c0:d6:d1:a4:0c:7b:1c:18:8c:1c:b7:de:
                    b6:b9:2d:2f:72:0a:f8:f2:d0:df:6b:70:0e:4a:f8:
                    c7:dd:26:84:2a:2e:40:71:a4:57:05:75:f7:a6:4f:
                    94:30:19:0c:c8:78:d3:35:29:84:45:5d:ee:ea:25:
                    7d:9e:b2:3a:65:fa:bd:7d:f3:e7:e6:98:40:c5:15:
                    31:21:2d:28:ec:6b:9c:aa:2c:33:a1:b4:28:b0:d4:
                    82:6b:0e:18:93:23:c9:59:c6:1f:e2:2d:d3:97:91:
                    3c:5f:59:f2:63:ee:b3:ab:c7:a4:78:2e:59:45:5a:
                    ca:d0:f0:8a:8f:97:10:20:97:ea:dc:3b:ce:0d:17:
                    4d:18:24:61:5a:60:cb:29:22:35:b5:ea:55:28:98:
                    58:cc:e0:ce:6c:3d:d6:06:2b:8a:9a:8d:ae:72:a5:
                    49:40:59:8b:66:cb:86:36:2e:1a:70:5d:02:49:26:
                    bf:11
                Exponent: 65537 (0x10001)
        X509v3 extensions:
            X509v3 Basic Constraints: critical
                CA:FALSE
            X509v3 Subject Key Identifier: 
                1A:88:38:01:80:3E:B2:B1:71:97:6F:2F:D3:BA:76:6B:EE:E7:57:F1
            X509v3 Key Usage: critical
                Digital Signature
            X509v3 Extended Key Usage: 
                TLS Web Server Authentication, TLS Web Client Authentication
            X509v3 Authority Key Identifier: 
                38:EF:43:18:CA:52:57:C5:B5:0F:36:3D:6E:97:F6:2D:DA:3F:25:46
            X509v3 Subject Alternative Name: 
                DNS:test-host.cnaf.infn.it
    Signature Algorithm: sha512WithRSAEncryption
    Signature Value:
        82:07:06:2c:9e:d2:a2:bb:ae:7a:c0:94:69:af:82:2e:eb:15:
        a9:48:45:7e:89:93:a9:65:ae:2c:85:4b:b3:3f:ad:23:e0:29:
        b2:c3:83:1b:8a:09:ee:a6:df:8d:d5:29:c3:6b:d0:19:e4:c7:
        f2:5f:48:9d:2b:08:9c:30:20:99:73:99:5b:c6:7c:89:86:12:
        8b:ce:84:1e:71:78:07:0c:bb:8c:86:b3:f1:f7:e0:70:cb:43:
        be:a0:d2:5a:0d:57:c7:07:f5:19:1e:fc:c2:b9:dd:0f:fd:e0:
        77:fd:6a:e5:03:59:05:96:9e:20:d2:9b:73:87:ea:b2:d2:c2:
        7f:ac:30:83:7b:58:46:f9:ab:b4:f5:40:55:bf:2f:37:e0:6f:
        7b:52:5d:0d:b0:9d:3e:36:70:9e:15:82:58:a3:32:93:82:07:
        f6:2c:50:d7:42:6f:ba:1a:bc:98:9b:34:e9:e9:d1:74:f7:ec:
        65:5d:50:01:55:b1:08:9f:35:b9:f1:e8:75:1b:3d:de:e4:71:
        27:ef:dc:f2:f8:79:fa:7e:02:d6:0f:9b:b8:17:38:87:e4:87:
        a5:8a:4b:96:23:75:b1:50:11:65:b3:bb:69:3c:5c:26:21:a7:
        cf:32:69:8a:e2:67:9a:d3:45:6b:dd:e6:51:8d:92:d8:87:4a:
        e1:29:00:87
-----BEGIN CERTIFICATE-----
MIIDmzCCAoOgAwIBAgIUOO+3ODdGwEY9dcabbK9vpo2FoxUwDQYJKoZIhvcNAQEN
BQAwLTELMAkGA1UEBhMCSVQxDDAKBgNVBAoMA0lHSTEQMA4GA1UEAwwHVGVzdCBD
QTAeFw0yNTAyMTMxNDI4MzlaFw0yNTAzMTUxNDI4MzlaMDwxCzAJBgNVBAYTAklU
MQwwCgYDVQQKDANJR0kxHzAdBgNVBAMMFnRlc3QtaG9zdC5jbmFmLmluZm4uaXQw
ggEiMA0GCSqGSIb3DQEBAQUAA4IBDwAwggEKAoIBAQDG3R4q+4T2oHfQheiD9ooV
J8pDtKnQjfPy7N9o+A5NEp2B76+Qg+MqBfUvPes2OFkhgk6ohg4BX5aN7GA/3tzR
cyQ1LqzKnK7Rf6UL3cDW0aQMexwYjBy33ra5LS9yCvjy0N9rcA5K+MfdJoQqLkBx
pFcFdfemT5QwGQzIeNM1KYRFXe7qJX2esjpl+r198+fmmEDFFTEhLSjsa5yqLDOh
tCiw1IJrDhiTI8lZxh/iLdOXkTxfWfJj7rOrx6R4LllFWsrQ8IqPlxAgl+rcO84N
F00YJGFaYMspIjW16lUomFjM4M5sPdYGK4qaja5ypUlAWYtmy4Y2LhpwXQJJJr8R
AgMBAAGjgaMwgaAwDAYDVR0TAQH/BAIwADAdBgNVHQ4EFgQUGog4AYA+srFxl28v
07p2a+7nV/EwDgYDVR0PAQH/BAQDAgeAMB0GA1UdJQQWMBQGCCsGAQUFBwMBBggr
BgEFBQcDAjAfBgNVHSMEGDAWgBQ470MYylJXxbUPNj1ul/Yt2j8lRjAhBgNVHREE
GjAYghZ0ZXN0LWhvc3QuY25hZi5pbmZuLml0MA0GCSqGSIb3DQEBDQUAA4IBAQCC
BwYsntKiu656wJRpr4Iu6xWpSEV+iZOpZa4shUuzP60j4Cmyw4Mbignupt+N1SnD
a9AZ5MfyX0idKwicMCCZc5lbxnyJhhKLzoQecXgHDLuMhrPx9+Bwy0O+oNJaDVfH
B/UZHvzCud0P/eB3/WrlA1kFlp4g0ptzh+qy0sJ/rDCDe1hG+au09UBVvy834G97
Ul0NsJ0+NnCeFYJYozKTggf2LFDXQm+6GryYmzTp6dF09+xlXVABVbEInzW58eh1
Gz3e5HEn79zy+Hn6fgLWD5u4FziH5IelikuWI3WxUBFls7tpPFwmIafPMmmK4mea
00Vr3eZRjZLYh0rhKQCH
-----END CERTIFICATE-----
