Certificate:
    Data:
        Version: 3 (0x2)
        Serial Number:
            2b:6a:0b:e8:69:c2:10:82:66:fc:94:73:bb:ac:08:78:34:ca:06:e4
        Signature Algorithm: sha512WithRSAEncryption
        Issuer: C=IT, O=IGI, CN=Test CA
        Validity
            Not Before: Feb 13 14:28:39 2025 GMT
            Not After : Mar 15 14:28:39 2025 GMT
        Subject: C=IT, O=IGI, CN=Test2
        Subject Public Key Info:
            Public Key Algorithm: rsaEncryption
                Public-Key: (2048 bit)
                Modulus:
                    00:d2:03:cf:34:5b:57:ec:f9:be:ca:58:e0:26:25:
                    12:1a:31:f7:dc:a0:b9:c9:1b:b3:90:82:82:b5:0a:
                    88:cb:75:72:2b:af:7e:5c:99:c9:cf:96:5c:16:48:
                    f4:d6:b1:59:d1:b1:1a:79:67:76:d8:b8:a1:25:13:
                    21:d7:e3:61:a8:00:46:e6:92:21:78:6e:8a:37:07:
                    77:07:65:23:7d:77:95:69:ca:5f:24:82:b9:be:ec:
                    c8:00:d0:b8:bb:51:f4:cb:1e:25:e6:4b:8b:4b:c5:
                    07:e6:7d:ff:a8:bb:78:7b:2f:d9:d5:ea:de:e4:a8:
                    10:e7:15:ac:3c:c1:f7:d2:44:f1:ef:ac:59:a6:9e:
                    9a:a7:8c:fc:4d:f7:4c:93:74:8a:2f:10:3d:95:54:
                    28:2a:d5:49:d3:b5:5d:fc:99:18:c4:ab:79:05:fd:
                    59:5f:20:14:67:0c:c6:34:ab:94:57:30:a5:23:07:
                    43:23:1f:cc:c9:23:41:2f:d0:6d:96:d6:20:fb:ad:
                    b5:35:5b:d3:78:ea:f2:5e:7b:b0:54:cc:83:c4:18:
                    33:4c:cc:27:13:bd:0a:b0:eb:0e:76:d2:74:21:0f:
                    80:99:3a:a5:e0:50:65:c9:71:c8:19:91:65:84:27:
                    1d:7b:9c:80:ce:3f:56:b2:29:f2:19:f9:1b:34:56:
                    bc:11
                Exponent: 65537 (0x10001)
        X509v3 extensions:
            X509v3 Basic Constraints: critical
                CA:FALSE
            X509v3 Subject Key Identifier: 
                D1:A7:69:7A:0C:13:3B:32:34:A2:18:CB:89:4D:CA:3C:55:AA:4C:57
            X509v3 Key Usage: critical
                Digital Signature, Non Repudiation, Key Encipherment
            X509v3 Authority Key Identifier: 
                38:EF:43:18:CA:52:57:C5:B5:0F:36:3D:6E:97:F6:2D:DA:3F:25:46
            X509v3 Subject Alternative Name: 
                email:test2@cnaf.infn.it
    Signature Algorithm: sha512WithRSAEncryption
    Signature Value:
        53:b0:13:e1:b1:76:db:ff:07:0d:61:b7:c9:4b:d4:53:33:f9:
        3c:93:21:32:b9:61:01:89:a3:1d:d2:d7:a4:2d:b7:fe:db:35:
        2e:e1:43:a3:c3:22:e8:47:74:97:b8:ff:b5:a6:f5:1e:86:cc:
        a1:47:2b:eb:19:4d:3d:84:2c:61:1e:36:78:a0:95:61:4f:90:
        34:6d:51:43:46:46:42:ba:2f:76:00:c5:f2:32:95:8b:26:e1:
        90:c2:3c:03:7b:67:b4:3b:22:53:27:b5:66:ed:8b:30:9d:33:
        cf:50:6b:ca:66:b1:08:1a:15:b6:0d:72:fe:41:30:5a:25:4b:
        a7:ce:0a:aa:7d:a8:31:2a:c1:fa:74:47:b5:26:08:1b:b1:69:
        e8:27:87:d2:08:f4:25:05:2c:9e:83:ec:db:35:6e:6d:37:f8:
        f2:bf:88:ff:16:13:f8:2c:c5:40:3d:1a:0c:93:df:51:52:bf:
        21:8b:ae:a6:a5:95:57:da:4d:ee:85:fb:0a:4e:35:62:18:29:
        3d:cc:ba:7e:3b:be:ab:94:6d:b5:3d:c0:aa:03:0e:11:6b:05:
        6a:49:13:44:00:4c:ef:ed:10:3c:4f:b1:a7:de:e3:d6:76:79:
        ba:f9:5d:ad:f6:af:fe:b7:61:c7:95:25:bb:d2:c6:91:47:a8:
        85:cc:dd:ca
-----BEGIN CERTIFICATE-----
MIIDZTCCAk2gAwIBAgIUK2oL6GnCEIJm/JRzu6wIeDTKBuQwDQYJKoZIhvcNAQEN
BQAwLTELMAkGA1UEBhMCSVQxDDAKBgNVBAoMA0lHSTEQMA4GA1UEAwwHVGVzdCBD
QTAeFw0yNTAyMTMxNDI4MzlaFw0yNTAzMTUxNDI4MzlaMCsxCzAJBgNVBAYTAklU
MQwwCgYDVQQKDANJR0kxDjAMBgNVBAMMBVRlc3QyMIIBIjANBgkqhkiG9w0BAQEF
AAOCAQ8AMIIBCgKCAQEA0gPPNFtX7Pm+yljgJiUSGjH33KC5yRuzkIKCtQqIy3Vy
K69+XJnJz5ZcFkj01rFZ0bEaeWd22LihJRMh1+NhqABG5pIheG6KNwd3B2UjfXeV
acpfJIK5vuzIANC4u1H0yx4l5kuLS8UH5n3/qLt4ey/Z1ere5KgQ5xWsPMH30kTx
76xZpp6ap4z8TfdMk3SKLxA9lVQoKtVJ07Vd/JkYxKt5Bf1ZXyAUZwzGNKuUVzCl
IwdDIx/MySNBL9BtltYg+621NVvTeOryXnuwVMyDxBgzTMwnE70KsOsOdtJ0IQ+A
mTql4FBlyXHIGZFlhCcde5yAzj9WsinyGfkbNFa8EQIDAQABo38wfTAMBgNVHRMB
Af8EAjAAMB0GA1UdDgQWBBTRp2l6DBM7MjSiGMuJTco8VapMVzAOBgNVHQ8BAf8E
BAMCBeAwHwYDVR0jBBgwFoAUOO9DGMpSV8W1DzY9bpf2Ldo/JUYwHQYDVR0RBBYw
FIESdGVzdDJAY25hZi5pbmZuLml0MA0GCSqGSIb3DQEBDQUAA4IBAQBTsBPhsXbb
/wcNYbfJS9RTM/k8kyEyuWEBiaMd0tekLbf+2zUu4UOjwyLoR3SXuP+1pvUehsyh
RyvrGU09hCxhHjZ4oJVhT5A0bVFDRkZCui92AMXyMpWLJuGQwjwDe2e0OyJTJ7Vm
7YswnTPPUGvKZrEIGhW2DXL+QTBaJUunzgqqfagxKsH6dEe1JggbsWnoJ4fSCPQl
BSyeg+zbNW5tN/jyv4j/FhP4LMVAPRoMk99RUr8hi66mpZVX2k3uhfsKTjViGCk9
zLp+O76rlG21PcCqAw4RawVqSRNEAEzv7RA8T7Gn3uPWdnm6+V2t9q/+t2HHlSW7
0saRR6iFzN3K
-----END CERTIFICATE-----
