Certificate:
    Data:
        Version: 3 (0x2)
        Serial Number:
            6c:b1:4d:5e:00:08:79:42:c5:ad:a8:14:e9:80:d2:c5:03:0e:33:48
        Signature Algorithm: sha512WithRSAEncryption
        Issuer: C=IT, O=IGI, CN=Test CA
        Validity
            Not Before: Feb 13 14:28:40 2025 GMT
            Not After : Mar 15 14:28:40 2025 GMT
        Subject: C=IT, O=IGI, CN=test-host.cnaf.infn.it
        Subject Public Key Info:
            Public Key Algorithm: rsaEncryption
                Public-Key: (2048 bit)
                Modulus:
                    00:8d:7e:45:24:ad:e5:e2:1d:6a:83:35:41:6e:7a:
                    aa:19:80:b0:5c:52:e7:55:73:9f:d2:f0:b6:1f:89:
                    cc:34:e9:c1:25:5c:dd:bf:ae:a1:87:dc:42:a1:c7:
                    9a:10:ce:18:77:9b:e4:09:28:6a:61:33:35:7c:34:
                    d4:87:35:20:31:c5:28:e8:cd:36:78:ac:2b:ac:82:
                    d9:06:57:c8:43:b3:d5:2b:b4:94:03:e4:b9:46:24:
                    8a:e4:7f:12:ac:f4:6c:08:02:38:da:b9:13:2b:6c:
                    31:ef:58:76:35:9f:f0:b6:45:e8:16:d2:8b:42:f8:
                    79:a8:e7:18:dd:5e:e3:f0:14:48:71:8e:64:d9:96:
                    c3:e8:f9:ac:79:53:90:a3:c9:6e:31:8a:63:6f:6c:
                    f0:d5:fb:63:ef:44:f9:89:cf:7f:f0:a1:f7:95:8f:
                    ac:50:de:56:4b:34:9f:3e:62:b9:d9:2c:54:73:4b:
                    51:fc:34:f1:5e:3f:e8:b2:1d:f8:76:45:db:d8:e0:
                    e6:3a:7d:eb:36:f3:8f:95:58:8e:91:b3:10:13:88:
                    33:32:b3:90:9d:8e:2e:eb:39:ed:d7:e3:29:61:29:
                    ac:31:2a:17:38:e1:e3:3c:aa:48:bb:5b:b8:2a:4a:
                    e9:37:c9:66:32:11:ec:af:d2:3a:56:10:e0:09:73:
                    2a:89
                Exponent: 65537 (0x10001)
        X509v3 extensions:
            X509v3 Basic Constraints: critical
                CA:FALSE
            X509v3 Subject Key Identifier: 
                2E:83:4B:81:02:23:0C:2E:91:B8:12:B9:7C:52:DF:DF:DB:36:66:47
            X509v3 Key Usage: critical
                Digital Signature
            X509v3 Extended Key Usage: 
                TLS Web Server Authentication, TLS Web Client Authentication
            X509v3 Authority Key Identifier: 
                38:EF:43:18:CA:52:57:C5:B5:0F:36:3D:6E:97:F6:2D:DA:3F:25:46
            X509v3 Subject Alternative Name: 
                DNS:test-host.cnaf.infn.it
    Signature Algorithm: sha512WithRSAEncryption
    Signature Value:
        75:22:8a:05:82:e1:d8:c3:7d:09:3a:4c:16:b0:e5:08:6f:da:
        7c:a4:35:ad:06:e6:36:a5:3f:14:11:52:db:e2:88:24:c6:24:
        23:7d:79:c2:88:a5:9d:73:e6:f7:a5:94:9a:5e:40:b0:60:0c:
        c9:e9:7c:ef:de:19:81:f1:84:8e:4c:28:4d:39:a1:93:46:48:
        01:dc:40:5b:56:50:07:62:fc:19:f6:3a:08:a4:c7:0c:49:b0:
        61:72:07:a1:54:98:69:ff:f2:ac:38:a1:8c:8b:34:83:8c:52:
        ef:e5:8d:d2:07:e3:26:29:1f:5f:c4:cf:b2:f0:00:eb:43:55:
        eb:8e:bb:d1:b7:f4:3e:f3:9d:6f:b5:ee:78:46:1e:17:f5:70:
        aa:4f:60:a6:d9:7e:a0:5b:a6:49:2f:c8:ef:bf:8c:25:42:0a:
        ef:cb:39:b4:73:40:bc:22:9a:12:80:80:5e:b8:7f:d5:b3:db:
        d2:46:f7:b2:b7:54:78:5d:e2:e1:b2:2d:f5:cc:7f:35:1a:cc:
        5a:31:d9:d1:92:16:01:6a:47:2c:cd:02:b4:67:70:d4:f1:6c:
        0f:81:d8:73:1c:b7:93:07:ca:83:bb:62:de:96:65:55:3f:dd:
        35:b1:20:c1:57:7c:a5:f9:d6:3c:8b:b8:35:aa:cb:79:0e:1d:
        1f:b8:2b:db
-----BEGIN CERTIFICATE-----
MIIDmzCCAoOgAwIBAgIUbLFNXgAIeULFragU6YDSxQMOM0gwDQYJKoZIhvcNAQEN
BQAwLTELMAkGA1UEBhMCSVQxDDAKBgNVBAoMA0lHSTEQMA4GA1UEAwwHVGVzdCBD
QTAeFw0yNTAyMTMxNDI4NDBaFw0yNTAzMTUxNDI4NDBaMDwxCzAJBgNVBAYTAklU
MQwwCgYDVQQKDANJR0kxHzAdBgNVBAMMFnRlc3QtaG9zdC5jbmFmLmluZm4uaXQw
ggEiMA0GCSqGSIb3DQEBAQUAA4IBDwAwggEKAoIBAQCNfkUkreXiHWqDNUFueqoZ
gLBcUudVc5/S8LYficw06cElXN2/rqGH3EKhx5oQzhh3m+QJKGphMzV8NNSHNSAx
xSjozTZ4rCusgtkGV8hDs9UrtJQD5LlGJIrkfxKs9GwIAjjauRMrbDHvWHY1n/C2
RegW0otC+Hmo5xjdXuPwFEhxjmTZlsPo+ax5U5CjyW4ximNvbPDV+2PvRPmJz3/w
ofeVj6xQ3lZLNJ8+YrnZLFRzS1H8NPFeP+iyHfh2RdvY4OY6fes284+VWI6RsxAT
iDMys5Cdji7rOe3X4ylhKawxKhc44eM8qki7W7gqSuk3yWYyEeyv0jpWEOAJcyqJ
AgMBAAGjgaMwgaAwDAYDVR0TAQH/BAIwADAdBgNVHQ4EFgQULoNLgQIjDC6RuBK5
fFLf39s2ZkcwDgYDVR0PAQH/BAQDAgeAMB0GA1UdJQQWMBQGCCsGAQUFBwMBBggr
BgEFBQcDAjAfBgNVHSMEGDAWgBQ470MYylJXxbUPNj1ul/Yt2j8lRjAhBgNVHREE
GjAYghZ0ZXN0LWhvc3QuY25hZi5pbmZuLml0MA0GCSqGSIb3DQEBDQUAA4IBAQB1
IooFguHYw30JOkwWsOUIb9p8pDWtBuY2pT8UEVLb4ogkxiQjfXnCiKWdc+b3pZSa
XkCwYAzJ6Xzv3hmB8YSOTChNOaGTRkgB3EBbVlAHYvwZ9joIpMcMSbBhcgehVJhp
//KsOKGMizSDjFLv5Y3SB+MmKR9fxM+y8ADrQ1XrjrvRt/Q+851vte54Rh4X9XCq
T2Cm2X6gW6ZJL8jvv4wlQgrvyzm0c0C8IpoSgIBeuH/Vs9vSRveyt1R4XeLhsi31
zH81GsxaMdnRkhYBakcszQK0Z3DU8WwPgdhzHLeTB8qDu2LelmVVP901sSDBV3yl
+dY8i7g1qst5Dh0fuCvb
-----END CERTIFICATE-----
