Certificate:
    Data:
        Version: 3 (0x2)
        Serial Number:
            59:7d:1d:b5:46:0d:d2:b4:e1:75:dd:ac:ef:06:ec:b4:01:8d:c5:aa
        Signature Algorithm: sha512WithRSAEncryption
        Issuer: C=IT, O=IGI, CN=Test CA
        Validity
            Not Before: Feb 13 14:28:39 2025 GMT
            Not After : Mar 15 14:28:39 2025 GMT
        Subject: C=IT, O=IGI, CN=Test0
        Subject Public Key Info:
            Public Key Algorithm: rsaEncryption
                Public-Key: (2048 bit)
                Modulus:
                    00:b9:d3:4a:0c:e6:f7:50:a1:28:87:9d:15:55:97:
                    16:95:1b:30:b5:5d:38:86:c7:86:f3:c1:6c:84:40:
                    a1:3f:ff:c8:50:41:16:1b:8f:d7:d2:db:9a:43:50:
                    c2:a8:59:7a:9c:4e:e0:3e:5c:fa:4a:4a:f0:a4:2e:
                    44:27:d5:60:af:be:15:9d:f0:45:6e:81:e3:e9:e1:
                    44:25:bb:87:bb:c5:ba:e9:35:98:71:b6:78:8b:cd:
                    5e:5f:ae:6c:48:65:9a:d2:06:f5:cf:86:bb:a6:dd:
                    bb:3a:97:ee:ff:21:54:6e:0f:30:a5:e8:7c:a1:33:
                    b2:83:3a:b0:35:b0:53:a6:af:a1:bc:73:b9:54:e1:
                    7a:3f:ef:57:09:55:c9:fa:b3:ff:ad:5a:69:b4:0c:
                    ba:78:81:2c:d2:be:f7:49:1c:e1:dd:99:5f:c9:35:
                    6a:41:01:51:9a:e7:46:72:79:8d:0b:16:dd:cf:18:
                    9c:df:b7:af:ed:8c:4d:bf:32:12:e6:67:8d:bc:6e:
                    dc:0d:ad:5e:40:a6:20:76:e5:92:3b:07:91:bb:4f:
                    6a:c7:e6:5a:17:98:f7:b3:81:12:66:8b:12:49:9d:
                    2d:89:63:2e:d1:f1:40:8d:30:cd:97:a6:c7:c9:ee:
                    81:33:e6:db:9f:7c:6b:cf:24:34:aa:78:25:83:d7:
                    94:0b
                Exponent: 65537 (0x10001)
        X509v3 extensions:
            X509v3 Basic Constraints: critical
                CA:FALSE
            X509v3 Subject Key Identifier: 
                57:84:CD:B3:C1:96:2D:2A:53:1F:04:53:3F:3F:00:4A:2E:80:D7:5E
            X509v3 Key Usage: critical
                Digital Signature, Non Repudiation, Key Encipherment
            X509v3 Authority Key Identifier: 
                38:EF:43:18:CA:52:57:C5:B5:0F:36:3D:6E:97:F6:2D:DA:3F:25:46
            X509v3 Subject Alternative Name: 
                email:test0@cnaf.infn.it
    Signature Algorithm: sha512WithRSAEncryption
    Signature Value:
        21:af:cb:48:8d:35:8d:22:14:a4:64:18:b1:84:ec:20:31:f3:
        a4:de:7f:5a:e0:eb:78:65:4a:cd:af:ac:dc:2f:4e:cf:43:df:
        c0:45:3e:1f:fe:fa:fc:af:e4:5b:94:1c:35:91:47:a7:6c:e3:
        bf:f0:9e:15:a2:1f:39:3d:3c:e0:3e:02:91:44:9a:71:38:65:
        5e:2d:8f:d0:76:90:7d:8f:22:40:05:92:14:02:02:10:14:b4:
        3a:8b:d7:dd:be:aa:dd:fa:9f:15:a1:3a:04:a8:2d:51:fa:ff:
        ea:74:5b:81:c5:5c:1a:9d:e7:9f:ec:73:16:47:66:b8:02:49:
        d2:39:dd:a4:72:9e:08:c3:38:cd:ba:06:55:9e:7d:aa:36:9d:
        2a:6c:01:f3:ce:4c:17:b8:1b:1a:67:6c:85:14:15:92:8b:7a:
        e4:e1:0b:ac:e8:61:70:51:1a:9a:c5:fe:e3:78:7d:98:59:b9:
        56:0d:45:ac:19:a0:d5:a6:11:55:07:89:ea:9e:fa:b1:7b:58:
        ea:3b:5a:f9:cc:99:69:27:cf:99:42:db:65:cb:f8:5c:0f:3e:
        46:b1:b7:37:e8:bd:54:5a:de:88:55:02:46:aa:f8:f8:4c:be:
        79:3c:3f:96:f6:ca:7e:26:07:76:88:66:a0:d9:e0:34:b1:ed:
        44:cf:d2:93
-----BEGIN CERTIFICATE-----
MIIDZTCCAk2gAwIBAgIUWX0dtUYN0rThdd2s7wbstAGNxaowDQYJKoZIhvcNAQEN
BQAwLTELMAkGA1UEBhMCSVQxDDAKBgNVBAoMA0lHSTEQMA4GA1UEAwwHVGVzdCBD
QTAeFw0yNTAyMTMxNDI4MzlaFw0yNTAzMTUxNDI4MzlaMCsxCzAJBgNVBAYTAklU
MQwwCgYDVQQKDANJR0kxDjAMBgNVBAMMBVRlc3QwMIIBIjANBgkqhkiG9w0BAQEF
AAOCAQ8AMIIBCgKCAQEAudNKDOb3UKEoh50VVZcWlRswtV04hseG88FshEChP//I
UEEWG4/X0tuaQ1DCqFl6nE7gPlz6SkrwpC5EJ9Vgr74VnfBFboHj6eFEJbuHu8W6
6TWYcbZ4i81eX65sSGWa0gb1z4a7pt27Opfu/yFUbg8wpeh8oTOygzqwNbBTpq+h
vHO5VOF6P+9XCVXJ+rP/rVpptAy6eIEs0r73SRzh3ZlfyTVqQQFRmudGcnmNCxbd
zxic37ev7YxNvzIS5meNvG7cDa1eQKYgduWSOweRu09qx+ZaF5j3s4ESZosSSZ0t
iWMu0fFAjTDNl6bHye6BM+bbn3xrzyQ0qnglg9eUCwIDAQABo38wfTAMBgNVHRMB
Af8EAjAAMB0GA1UdDgQWBBRXhM2zwZYtKlMfBFM/PwBKLoDXXjAOBgNVHQ8BAf8E
BAMCBeAwHwYDVR0jBBgwFoAUOO9DGMpSV8W1DzY9bpf2Ldo/JUYwHQYDVR0RBBYw
FIESdGVzdDBAY25hZi5pbmZuLml0MA0GCSqGSIb3DQEBDQUAA4IBAQAhr8tIjTWN
IhSkZBixhOwgMfOk3n9a4Ot4ZUrNr6zcL07PQ9/ART4f/vr8r+RblBw1kUenbOO/
8J4Voh85PTzgPgKRRJpxOGVeLY/QdpB9jyJABZIUAgIQFLQ6i9fdvqrd+p8VoToE
qC1R+v/qdFuBxVwaneef7HMWR2a4AknSOd2kcp4IwzjNugZVnn2qNp0qbAHzzkwX
uBsaZ2yFFBWSi3rk4Qus6GFwURqaxf7jeH2YWblWDUWsGaDVphFVB4nqnvqxe1jq
O1r5zJlpJ8+ZQttly/hcDz5Gsbc36L1UWt6IVQJGqvj4TL55PD+W9sp+Jgd2iGag
2eA0se1Ez9KT
-----END CERTIFICATE-----
