Certificate:
    Data:
        Version: 3 (0x2)
        Serial Number:
            52:09:0a:9c:82:89:be:9a:9c:58:d0:64:5c:93:11:70:d3:a9:be:1b
        Signature Algorithm: sha512WithRSAEncryption
        Issuer: C=IT, O=IGI, CN=Test CA
        Validity
            Not Before: Feb 13 14:28:39 2025 GMT
            Not After : Mar 15 14:28:39 2025 GMT
        Subject: C=IT, O=IGI, CN=Test4
        Subject Public Key Info:
            Public Key Algorithm: rsaEncryption
                Public-Key: (2048 bit)
                Modulus:
                    00:93:86:c4:f4:33:a9:14:84:72:1a:b5:8a:ae:c8:
                    ba:7c:38:26:a1:1d:79:02:d4:27:ec:18:bb:ab:5d:
                    2c:9e:61:06:fb:58:c3:aa:b7:f5:cc:82:00:54:84:
                    09:22:8a:cb:43:b8:a3:d6:31:d8:77:bf:8a:b7:51:
                    9d:36:1b:e1:ac:c9:2a:8a:9b:71:86:0d:45:4b:17:
                    92:3a:31:3a:71:b8:18:af:92:2c:ce:62:dd:7b:37:
                    a7:e5:49:e0:ad:c1:b4:91:b2:ce:6a:13:39:2a:f4:
                    6e:d7:e2:b2:17:5d:83:a3:fe:2a:ce:f9:ff:f0:ab:
                    07:54:24:89:fc:62:10:0b:df:a2:6c:25:ca:2e:5b:
                    fb:d3:08:82:9e:3e:43:82:38:aa:c2:03:41:8d:fa:
                    bd:b6:7b:2b:18:66:fa:74:7b:fa:76:fc:4a:f0:a4:
                    72:3e:cc:82:cc:86:e8:88:f8:a7:f6:3d:e4:06:83:
                    b6:d5:8e:06:fb:42:0e:38:5e:33:91:fa:7d:4b:eb:
                    aa:7c:09:d6:ee:aa:59:ca:c3:44:aa:2c:8e:ca:b2:
                    28:fc:00:5d:66:34:cf:cd:ed:bb:44:75:7e:ee:3a:
                    1a:7c:4c:c8:e4:6d:1e:ad:22:4c:96:9f:3a:30:e8:
                    ef:75:19:96:a9:b3:b2:f1:e0:cb:46:e8:c3:6f:83:
                    e2:bf
                Exponent: 65537 (0x10001)
        X509v3 extensions:
            X509v3 Basic Constraints: critical
                CA:FALSE
            X509v3 Subject Key Identifier: 
                77:76:F0:74:5F:EB:DA:4A:67:CA:76:EF:6A:F8:E8:1D:01:E0:0E:8D
            X509v3 Key Usage: critical
                Digital Signature, Non Repudiation, Key Encipherment
            X509v3 Authority Key Identifier: 
                38:EF:43:18:CA:52:57:C5:B5:0F:36:3D:6E:97:F6:2D:DA:3F:25:46
            X509v3 Subject Alternative Name: 
                email:test4@cnaf.infn.it
    Signature Algorithm: sha512WithRSAEncryption
    Signature Value:
        6b:3e:36:75:0c:a2:e3:61:72:e2:40:a7:9f:16:68:5d:8d:af:
        5a:45:76:59:40:32:ea:89:09:e4:87:fa:2e:23:74:4c:3d:0e:
        20:19:6c:37:d8:fa:dd:90:59:6b:51:03:2e:1a:1a:1d:a9:96:
        25:5d:b8:9b:04:d8:b4:9d:5c:ac:51:a7:48:46:09:8a:1c:fb:
        a0:6f:4f:72:73:b6:29:9f:f8:72:af:ef:a2:8f:26:10:7b:82:
        1f:cd:70:92:59:0e:3f:7d:a3:5e:db:c2:f2:10:9a:a2:63:58:
        50:ab:62:55:02:55:ad:ed:eb:70:91:b8:e0:bc:21:61:a2:f9:
        88:5c:cd:55:39:b6:aa:53:dc:fd:92:1e:d2:d0:f4:14:9f:be:
        b5:3d:41:10:4d:9b:e0:92:28:d2:98:71:e6:7e:8c:fa:be:26:
        ca:57:e7:1e:71:fa:b5:b1:26:cc:de:d3:83:de:18:8b:f6:2d:
        d6:de:9c:01:5f:58:ca:de:d9:22:09:7f:ae:1d:d6:0f:5f:4a:
        1e:ab:d6:a6:16:a6:56:03:2e:3e:6f:65:f2:9a:74:6c:5c:dc:
        5b:ac:e4:a9:82:c1:3e:fc:8e:f5:02:b8:75:0c:5a:6c:0b:f5:
        fc:42:31:13:56:f7:c1:55:a8:97:4f:28:4b:67:8b:32:b0:36:
        cc:4e:a2:ad
-----BEGIN CERTIFICATE-----
MIIDZTCCAk2gAwIBAgIUUgkKnIKJvpqcWNBkXJMRcNOpvhswDQYJKoZIhvcNAQEN
BQAwLTELMAkGA1UEBhMCSVQxDDAKBgNVBAoMA0lHSTEQMA4GA1UEAwwHVGVzdCBD
QTAeFw0yNTAyMTMxNDI4MzlaFw0yNTAzMTUxNDI4MzlaMCsxCzAJBgNVBAYTAklU
MQwwCgYDVQQKDANJR0kxDjAMBgNVBAMMBVRlc3Q0MIIBIjANBgkqhkiG9w0BAQEF
AAOCAQ8AMIIBCgKCAQEAk4bE9DOpFIRyGrWKrsi6fDgmoR15AtQn7Bi7q10snmEG
+1jDqrf1zIIAVIQJIorLQ7ij1jHYd7+Kt1GdNhvhrMkqiptxhg1FSxeSOjE6cbgY
r5IszmLdezen5UngrcG0kbLOahM5KvRu1+KyF12Do/4qzvn/8KsHVCSJ/GIQC9+i
bCXKLlv70wiCnj5DgjiqwgNBjfq9tnsrGGb6dHv6dvxK8KRyPsyCzIboiPin9j3k
BoO21Y4G+0IOOF4zkfp9S+uqfAnW7qpZysNEqiyOyrIo/ABdZjTPze27RHV+7joa
fEzI5G0erSJMlp86MOjvdRmWqbOy8eDLRujDb4PivwIDAQABo38wfTAMBgNVHRMB
Af8EAjAAMB0GA1UdDgQWBBR3dvB0X+vaSmfKdu9q+OgdAeAOjTAOBgNVHQ8BAf8E
BAMCBeAwHwYDVR0jBBgwFoAUOO9DGMpSV8W1DzY9bpf2Ldo/JUYwHQYDVR0RBBYw
FIESdGVzdDRAY25hZi5pbmZuLml0MA0GCSqGSIb3DQEBDQUAA4IBAQBrPjZ1DKLj
YXLiQKefFmhdja9aRXZZQDLqiQnkh/ouI3RMPQ4gGWw32PrdkFlrUQMuGhodqZYl
XbibBNi0nVysUadIRgmKHPugb09yc7Ypn/hyr++ijyYQe4IfzXCSWQ4/faNe28Ly
EJqiY1hQq2JVAlWt7etwkbjgvCFhovmIXM1VObaqU9z9kh7S0PQUn761PUEQTZvg
kijSmHHmfoz6vibKV+cecfq1sSbM3tOD3hiL9i3W3pwBX1jK3tkiCX+uHdYPX0oe
q9amFqZWAy4+b2XymnRsXNxbrOSpgsE+/I71Arh1DFpsC/X8QjETVvfBVaiXTyhL
Z4sysDbMTqKt
-----END CERTIFICATE-----
