Certificate:
    Data:
        Version: 3 (0x2)
        Serial Number:
            1f:a8:4b:de:48:ad:20:9a:d4:89:58:b0:c2:c7:a6:ca:45:b8:2b:15
        Signature Algorithm: sha512WithRSAEncryption
        Issuer: C=IT, O=IGI, CN=Test CA
        Validity
            Not Before: Feb 13 14:28:39 2025 GMT
            Not After : Mar 15 14:28:39 2025 GMT
        Subject: C=IT, O=IGI, CN=Test3
        Subject Public Key Info:
            Public Key Algorithm: rsaEncryption
                Public-Key: (2048 bit)
                Modulus:
                    00:d1:9e:a1:d1:92:d0:53:59:fa:b4:45:22:1a:d3:
                    86:32:1e:24:65:b2:30:3b:7f:03:dc:f5:ab:fd:9e:
                    d7:81:33:d9:e2:7d:db:78:39:ce:64:83:13:b4:5f:
                    07:69:ab:d2:cb:15:80:3b:d7:f4:9f:ef:6c:3e:bf:
                    1c:b5:93:dc:a3:91:a0:ab:d5:b7:4f:eb:b1:33:35:
                    d9:a5:a1:c2:88:d6:6c:de:d8:67:41:84:5a:1d:3a:
                    f1:4e:79:91:f8:7e:17:ff:b7:8a:ec:10:d2:09:59:
                    04:27:2e:b6:b2:09:fa:47:74:4e:02:25:e6:0e:a9:
                    75:42:6a:25:24:30:1c:d8:73:d6:c7:fe:c7:a2:c4:
                    d8:1e:11:2c:01:83:60:7e:19:c3:ae:8b:b0:02:0a:
                    8d:6e:0d:ed:51:59:c4:0c:c7:2c:d5:7c:8c:78:02:
                    e5:07:4e:6d:e1:b3:13:26:0d:99:d9:d9:b2:76:f3:
                    56:9a:1a:cf:96:59:74:9d:c6:25:4c:08:35:a6:61:
                    10:d5:0c:6a:d0:38:d7:32:ab:5d:24:ce:81:82:e4:
                    b2:33:62:92:89:d7:4c:5b:cb:d8:6c:1b:44:36:97:
                    ec:28:cd:9f:41:f0:80:5f:be:5b:ee:67:22:1c:bb:
                    20:9d:2e:dd:71:36:93:74:10:a0:b7:6e:ab:7f:d6:
                    19:61
                Exponent: 65537 (0x10001)
        X509v3 extensions:
            X509v3 Basic Constraints: critical
                CA:FALSE
            X509v3 Subject Key Identifier: 
                2B:17:2C:92:71:D0:08:C0:30:83:B9:D8:52:D4:56:75:D3:1E:CD:BA
            X509v3 Key Usage: critical
                Digital Signature, Non Repudiation, Key Encipherment
            X509v3 Authority Key Identifier: 
                38:EF:43:18:CA:52:57:C5:B5:0F:36:3D:6E:97:F6:2D:DA:3F:25:46
            X509v3 Subject Alternative Name: 
                email:test3@cnaf.infn.it
    Signature Algorithm: sha512WithRSAEncryption
    Signature Value:
        af:a1:3c:f2:22:1f:74:ec:0f:e8:ea:39:0b:27:6b:45:7b:c7:
        3b:16:09:df:d6:f7:85:24:3e:f8:87:e4:4f:59:d9:71:70:90:
        44:ee:fa:24:dd:9c:0c:2b:47:75:29:35:56:27:62:88:8f:22:
        99:c5:92:92:13:b9:77:38:15:52:ff:64:29:b5:10:3e:b9:dd:
        5f:bf:5e:40:f0:0c:d4:ae:7c:68:43:b7:b1:af:6d:c6:00:e6:
        02:9b:f2:a2:41:12:b8:1f:cb:43:2c:da:50:78:27:2d:44:29:
        91:39:f5:51:06:71:0d:03:65:ab:c7:0b:cd:7b:22:19:86:21:
        1f:86:d5:75:51:4f:02:22:74:a3:a6:19:4f:d6:2b:83:b0:a5:
        aa:22:12:d2:77:c1:58:bf:26:2f:c7:c9:a1:10:9f:bd:de:17:
        bb:f5:85:92:4f:9b:72:c3:69:e1:58:9e:fc:bd:b4:21:6c:ff:
        5e:9f:8a:14:85:d6:e1:97:6f:4b:0b:bf:46:69:e7:c3:64:80:
        9c:27:2e:22:bf:b6:2a:be:1c:0e:ee:95:a8:c2:61:10:93:f2:
        4c:7e:bb:49:f9:ad:6f:da:f5:aa:9c:e5:74:d2:ed:f6:50:28:
        92:eb:8f:4c:c6:c2:48:0d:96:a1:5d:20:e0:d3:ea:c4:61:d8:
        43:19:fa:ea
-----BEGIN CERTIFICATE-----
MIIDZTCCAk2gAwIBAgIUH6hL3kitIJrUiViwwsemykW4KxUwDQYJKoZIhvcNAQEN
BQAwLTELMAkGA1UEBhMCSVQxDDAKBgNVBAoMA0lHSTEQMA4GA1UEAwwHVGVzdCBD
QTAeFw0yNTAyMTMxNDI4MzlaFw0yNTAzMTUxNDI4MzlaMCsxCzAJBgNVBAYTAklU
MQwwCgYDVQQKDANJR0kxDjAMBgNVBAMMBVRlc3QzMIIBIjANBgkqhkiG9w0BAQEF
AAOCAQ8AMIIBCgKCAQEA0Z6h0ZLQU1n6tEUiGtOGMh4kZbIwO38D3PWr/Z7XgTPZ
4n3beDnOZIMTtF8HaavSyxWAO9f0n+9sPr8ctZPco5Ggq9W3T+uxMzXZpaHCiNZs
3thnQYRaHTrxTnmR+H4X/7eK7BDSCVkEJy62sgn6R3ROAiXmDql1QmolJDAc2HPW
x/7HosTYHhEsAYNgfhnDrouwAgqNbg3tUVnEDMcs1XyMeALlB05t4bMTJg2Z2dmy
dvNWmhrPlll0ncYlTAg1pmEQ1Qxq0DjXMqtdJM6BguSyM2KSiddMW8vYbBtENpfs
KM2fQfCAX75b7mciHLsgnS7dcTaTdBCgt26rf9YZYQIDAQABo38wfTAMBgNVHRMB
Af8EAjAAMB0GA1UdDgQWBBQrFyyScdAIwDCDudhS1FZ10x7NujAOBgNVHQ8BAf8E
BAMCBeAwHwYDVR0jBBgwFoAUOO9DGMpSV8W1DzY9bpf2Ldo/JUYwHQYDVR0RBBYw
FIESdGVzdDNAY25hZi5pbmZuLml0MA0GCSqGSIb3DQEBDQUAA4IBAQCvoTzyIh90
7A/o6jkLJ2tFe8c7Fgnf1veFJD74h+RPWdlxcJBE7vok3ZwMK0d1KTVWJ2KIjyKZ
xZKSE7l3OBVS/2QptRA+ud1fv15A8AzUrnxoQ7exr23GAOYCm/KiQRK4H8tDLNpQ
eCctRCmROfVRBnENA2WrxwvNeyIZhiEfhtV1UU8CInSjphlP1iuDsKWqIhLSd8FY
vyYvx8mhEJ+93he79YWST5tyw2nhWJ78vbQhbP9en4oUhdbhl29LC79GaefDZICc
Jy4iv7YqvhwO7pWowmEQk/JMfrtJ+a1v2vWqnOV00u32UCiS649MxsJIDZahXSDg
0+rEYdhDGfrq
-----END CERTIFICATE-----
