Certificate:
    Data:
        Version: 3 (0x2)
        Serial Number:
            06:83:c5:33:02:11:68:d0:04:f9:0d:ab:3b:84:c1:a4:8b:56:ce:13
        Signature Algorithm: sha512WithRSAEncryption
        Issuer: C=IT, O=IGI, CN=Test CA
        Validity
            Not Before: Feb 13 14:28:39 2025 GMT
            Not After : Mar 15 14:28:39 2025 GMT
        Subject: C=IT, O=IGI, CN=Test5
        Subject Public Key Info:
            Public Key Algorithm: rsaEncryption
                Public-Key: (2048 bit)
                Modulus:
                    00:a6:12:49:c0:db:ac:9f:76:7f:46:4c:12:3b:b6:
                    38:dd:b6:47:24:94:0d:66:85:d1:89:14:63:10:0c:
                    ff:1c:a1:39:2c:dd:35:1d:12:5f:05:30:68:07:82:
                    29:f9:f9:04:11:e7:1e:20:8d:df:20:80:dd:a4:5a:
                    23:15:5d:12:14:79:18:dd:47:d5:71:77:60:77:83:
                    7d:da:3b:54:b2:f4:43:26:a4:14:50:0b:08:6a:ea:
                    07:e4:ef:56:bf:93:96:56:2e:c0:9c:a3:b2:aa:88:
                    7d:84:b9:ae:fc:a1:df:5e:9e:b9:ac:d9:43:04:20:
                    d8:80:53:07:34:04:85:9d:c6:64:6c:38:41:dc:f3:
                    0d:8e:c4:5b:04:2b:42:e5:d5:45:70:01:b3:33:c8:
                    38:aa:06:78:16:85:41:c1:7d:7f:0f:75:d2:1d:37:
                    13:ca:10:29:de:fe:61:1a:9c:1a:4e:83:c3:8c:85:
                    e0:32:f9:9f:eb:e5:65:3f:df:ce:9a:ba:16:0a:af:
                    57:a1:15:f1:4e:88:4b:17:1f:c4:3b:a5:78:40:83:
                    b8:38:f5:91:ca:5b:d1:f1:f6:fa:4c:94:27:d1:7c:
                    c9:f9:4f:77:9b:eb:b9:6b:4a:52:73:82:78:53:87:
                    1b:33:b5:0f:43:f0:f4:8d:4d:6a:10:a8:62:6f:70:
                    25:dd
                Exponent: 65537 (0x10001)
        X509v3 extensions:
            X509v3 Basic Constraints: critical
                CA:FALSE
            X509v3 Subject Key Identifier: 
                FE:57:6C:7E:10:10:F7:58:0B:22:10:C7:1B:65:4B:5C:D1:94:06:04
            X509v3 Key Usage: critical
                Digital Signature, Non Repudiation, Key Encipherment
            X509v3 Authority Key Identifier: 
                38:EF:43:18:CA:52:57:C5:B5:0F:36:3D:6E:97:F6:2D:DA:3F:25:46
            X509v3 Subject Alternative Name: 
                email:test5@cnaf.infn.it
    Signature Algorithm: sha512WithRSAEncryption
    Signature Value:
        56:6f:b5:31:99:bd:ef:9d:2e:74:bc:bb:94:96:29:7b:6e:44:
        80:bd:9a:c6:c2:f5:de:e0:4d:19:4a:20:95:d5:47:0d:1d:51:
        a2:2e:3e:a5:34:59:03:5d:51:0d:78:c7:95:fa:d9:06:1b:94:
        f1:60:f9:1a:ed:d0:74:ab:7a:3f:07:a9:65:fa:55:e4:e0:73:
        98:fe:fb:4a:db:c0:e1:b8:6c:a7:cd:2f:d5:bc:0e:ef:72:ba:
        bc:9d:27:a9:7d:08:46:e1:bc:3c:8c:68:22:6c:af:14:1a:81:
        ca:20:72:6e:73:67:a6:d6:e4:d4:1e:a0:5a:3a:52:d9:94:85:
        e1:8c:38:98:08:af:0b:fe:54:10:67:2e:22:ea:62:da:f1:7e:
        e6:b8:29:8f:a8:57:8e:fe:73:64:41:e9:e7:14:d1:96:82:a1:
        d3:43:8c:b9:60:76:09:c4:88:42:e4:15:97:23:86:02:7b:34:
        08:49:65:13:8b:01:49:57:66:50:9d:94:92:40:70:5e:ff:40:
        91:fd:86:ba:cc:57:76:d3:15:6d:ed:40:93:3a:be:92:22:30:
        c1:eb:c1:78:32:8d:66:19:91:e3:a7:cb:7d:63:c3:fd:8d:2d:
        f6:fe:64:2c:a3:fb:5f:f5:35:86:cd:d4:7e:c6:49:64:28:19:
        c2:0d:56:0a
-----BEGIN CERTIFICATE-----
MIIDZTCCAk2gAwIBAgIUBoPFMwIRaNAE+Q2rO4TBpItWzhMwDQYJKoZIhvcNAQEN
BQAwLTELMAkGA1UEBhMCSVQxDDAKBgNVBAoMA0lHSTEQMA4GA1UEAwwHVGVzdCBD
QTAeFw0yNTAyMTMxNDI4MzlaFw0yNTAzMTUxNDI4MzlaMCsxCzAJBgNVBAYTAklU
MQwwCgYDVQQKDANJR0kxDjAMBgNVBAMMBVRlc3Q1MIIBIjANBgkqhkiG9w0BAQEF
AAOCAQ8AMIIBCgKCAQEAphJJwNusn3Z/RkwSO7Y43bZHJJQNZoXRiRRjEAz/HKE5
LN01HRJfBTBoB4Ip+fkEEeceII3fIIDdpFojFV0SFHkY3UfVcXdgd4N92jtUsvRD
JqQUUAsIauoH5O9Wv5OWVi7AnKOyqoh9hLmu/KHfXp65rNlDBCDYgFMHNASFncZk
bDhB3PMNjsRbBCtC5dVFcAGzM8g4qgZ4FoVBwX1/D3XSHTcTyhAp3v5hGpwaToPD
jIXgMvmf6+VlP9/OmroWCq9XoRXxTohLFx/EO6V4QIO4OPWRylvR8fb6TJQn0XzJ
+U93m+u5a0pSc4J4U4cbM7UPQ/D0jU1qEKhib3Al3QIDAQABo38wfTAMBgNVHRMB
Af8EAjAAMB0GA1UdDgQWBBT+V2x+EBD3WAsiEMcbZUtc0ZQGBDAOBgNVHQ8BAf8E
BAMCBeAwHwYDVR0jBBgwFoAUOO9DGMpSV8W1DzY9bpf2Ldo/JUYwHQYDVR0RBBYw
FIESdGVzdDVAY25hZi5pbmZuLml0MA0GCSqGSIb3DQEBDQUAA4IBAQBWb7Uxmb3v
nS50vLuUlil7bkSAvZrGwvXe4E0ZSiCV1UcNHVGiLj6lNFkDXVENeMeV+tkGG5Tx
YPka7dB0q3o/B6ll+lXk4HOY/vtK28DhuGynzS/VvA7vcrq8nSepfQhG4bw8jGgi
bK8UGoHKIHJuc2em1uTUHqBaOlLZlIXhjDiYCK8L/lQQZy4i6mLa8X7muCmPqFeO
/nNkQennFNGWgqHTQ4y5YHYJxIhC5BWXI4YCezQISWUTiwFJV2ZQnZSSQHBe/0CR
/Ya6zFd20xVt7UCTOr6SIjDB68F4Mo1mGZHjp8t9Y8P9jS32/mQso/tf9TWGzdR+
xklkKBnCDVYK
-----END CERTIFICATE-----
