Certificate:
    Data:
        Version: 3 (0x2)
        Serial Number:
            1e:a9:1f:79:b7:7d:3c:85:e8:33:e9:4d:69:1d:c0:31:5b:1f:fe:eb
        Signature Algorithm: sha512WithRSAEncryption
        Issuer: C=IT, O=IGI, CN=Test CA
        Validity
            Not Before: Feb 13 14:28:39 2025 GMT
            Not After : Mar 15 14:28:39 2025 GMT
        Subject: C=IT, O=IGI, CN=Test1
        Subject Public Key Info:
            Public Key Algorithm: rsaEncryption
                Public-Key: (2048 bit)
                Modulus:
                    00:c6:0f:52:b1:4a:e5:ad:da:c2:a3:cc:0c:80:a7:
                    91:81:9f:94:91:9a:b8:88:03:fe:0b:06:70:3d:5b:
                    d6:62:e1:72:ba:8e:f8:48:0f:3a:fd:35:94:a2:2d:
                    9b:ad:1b:9b:3d:c9:23:a0:90:88:57:0d:bb:31:f3:
                    20:f0:c5:86:2f:b3:d3:24:f5:80:98:5e:4c:2e:04:
                    6d:74:d7:0f:f1:8b:10:96:29:47:28:87:d3:c7:bf:
                    53:e0:eb:70:b2:ea:55:f6:20:80:65:5d:93:f7:d3:
                    f3:bc:80:d0:e8:6b:97:77:2e:31:00:1b:f3:bc:36:
                    1f:73:c2:93:28:11:4f:81:e5:73:f1:b6:50:1b:27:
                    09:d5:65:6e:9f:72:bb:d7:00:af:eb:56:80:32:d4:
                    2d:28:cc:de:7f:2f:04:7e:50:ee:56:83:bd:b3:b2:
                    3d:d2:b9:dc:e1:c0:df:1c:4c:a2:ee:2a:bb:54:9b:
                    27:c1:6f:dc:c4:28:c1:b7:28:93:55:23:51:c0:32:
                    b1:8c:48:aa:79:51:a8:7e:70:0d:42:79:65:4c:7f:
                    9d:1e:86:69:25:d1:ef:00:c7:f1:0b:08:87:6a:5c:
                    47:f0:91:50:d3:70:c2:c5:e7:7d:cc:62:0b:c6:43:
                    5e:97:44:e4:06:d1:48:0e:db:63:3d:24:80:99:0d:
                    21:8d
                Exponent: 65537 (0x10001)
        X509v3 extensions:
            X509v3 Basic Constraints: critical
                CA:FALSE
            X509v3 Subject Key Identifier: 
                DD:2E:DC:79:04:4E:0D:FD:99:AE:AD:B5:FA:3D:02:E2:F9:15:7F:D6
            X509v3 Key Usage: critical
                Digital Signature, Non Repudiation, Key Encipherment
            X509v3 Authority Key Identifier: 
                38:EF:43:18:CA:52:57:C5:B5:0F:36:3D:6E:97:F6:2D:DA:3F:25:46
            X509v3 Subject Alternative Name: 
                email:test1@cnaf.infn.it
    Signature Algorithm: sha512WithRSAEncryption
    Signature Value:
        b2:f3:dc:11:5e:42:84:fb:9c:49:52:ff:b6:4e:e5:4d:f3:26:
        af:b4:89:24:06:20:ae:6d:76:d6:ae:4d:11:70:86:cc:b3:18:
        ac:01:5a:b0:c2:37:1a:e1:d6:4a:71:bc:4a:e3:72:8e:d1:ed:
        27:1e:59:92:a5:a9:23:fc:70:09:c8:8b:bd:52:33:76:24:3e:
        22:27:19:bc:38:2d:5c:3b:c6:b0:a2:72:d0:cc:12:c6:e0:8d:
        e8:5e:ac:03:75:f9:22:7d:ab:98:16:d8:4e:63:57:57:e0:22:
        d3:4f:e7:b7:a5:5d:a5:4a:7a:c3:41:7f:23:00:dd:8d:1b:32:
        76:fd:cd:7f:c3:25:67:62:70:4c:69:d1:2d:20:9c:e4:c1:d2:
        24:09:01:e8:4e:12:5d:3b:dc:71:09:b6:eb:80:e8:20:4b:73:
        a9:fd:d2:47:4e:1b:2e:2d:08:d2:46:c7:8a:96:54:b5:50:cb:
        0d:3f:98:de:4c:c8:03:f6:06:29:89:7a:17:18:c6:9a:46:df:
        47:2d:ca:60:1b:89:e1:a9:dc:10:63:00:24:df:26:92:0b:b2:
        ca:57:1d:13:f4:de:1a:3d:4e:d7:28:fb:ac:6e:22:c3:d5:0c:
        a7:51:58:de:ee:50:04:a6:88:32:0e:b8:d4:1f:28:7e:0f:c2:
        b0:5e:e4:ac
-----BEGIN CERTIFICATE-----
MIIDZTCCAk2gAwIBAgIUHqkfebd9PIXoM+lNaR3AMVsf/uswDQYJKoZIhvcNAQEN
BQAwLTELMAkGA1UEBhMCSVQxDDAKBgNVBAoMA0lHSTEQMA4GA1UEAwwHVGVzdCBD
QTAeFw0yNTAyMTMxNDI4MzlaFw0yNTAzMTUxNDI4MzlaMCsxCzAJBgNVBAYTAklU
MQwwCgYDVQQKDANJR0kxDjAMBgNVBAMMBVRlc3QxMIIBIjANBgkqhkiG9w0BAQEF
AAOCAQ8AMIIBCgKCAQEAxg9SsUrlrdrCo8wMgKeRgZ+UkZq4iAP+CwZwPVvWYuFy
uo74SA86/TWUoi2brRubPckjoJCIVw27MfMg8MWGL7PTJPWAmF5MLgRtdNcP8YsQ
lilHKIfTx79T4OtwsupV9iCAZV2T99PzvIDQ6GuXdy4xABvzvDYfc8KTKBFPgeVz
8bZQGycJ1WVun3K71wCv61aAMtQtKMzefy8EflDuVoO9s7I90rnc4cDfHEyi7iq7
VJsnwW/cxCjBtyiTVSNRwDKxjEiqeVGofnANQnllTH+dHoZpJdHvAMfxCwiHalxH
8JFQ03DCxed9zGILxkNel0TkBtFIDttjPSSAmQ0hjQIDAQABo38wfTAMBgNVHRMB
Af8EAjAAMB0GA1UdDgQWBBTdLtx5BE4N/ZmurbX6PQLi+RV/1jAOBgNVHQ8BAf8E
BAMCBeAwHwYDVR0jBBgwFoAUOO9DGMpSV8W1DzY9bpf2Ldo/JUYwHQYDVR0RBBYw
FIESdGVzdDFAY25hZi5pbmZuLml0MA0GCSqGSIb3DQEBDQUAA4IBAQCy89wRXkKE
+5xJUv+2TuVN8yavtIkkBiCubXbWrk0RcIbMsxisAVqwwjca4dZKcbxK43KO0e0n
HlmSpakj/HAJyIu9UjN2JD4iJxm8OC1cO8awonLQzBLG4I3oXqwDdfkifauYFthO
Y1dX4CLTT+e3pV2lSnrDQX8jAN2NGzJ2/c1/wyVnYnBMadEtIJzkwdIkCQHoThJd
O9xxCbbrgOggS3Op/dJHThsuLQjSRseKllS1UMsNP5jeTMgD9gYpiXoXGMaaRt9H
LcpgG4nhqdwQYwAk3yaSC7LKVx0T9N4aPU7XKPusbiLD1QynUVje7lAEpogyDrjU
Hyh+D8KwXuSs
-----END CERTIFICATE-----
